; ModuleID = 'source-C-CXX/27/569.c'
source_filename = "source-C-CXX/27/569.c"
target datalayout = "e-m:e-p270:32:32-p271:32:32-p272:64:64-i64:64-f80:128-n8:16:32:64-S128"
target triple = "x86_64-pc-linux-gnu"

@.str = private unnamed_addr constant [4 x i8] c"%d,\00", align 1
@.str.1 = private unnamed_addr constant [3 x i8] c"%d\00", align 1

; Function Attrs: nounwind sspstrong uwtable
define dso_local void @main() local_unnamed_addr #0 {
  %1 = alloca [100000 x i8], align 16
  %2 = getelementptr inbounds [100000 x i8], [100000 x i8]* %1, i64 0, i64 0
  call void @llvm.lifetime.start.p0i8(i64 100000, i8* nonnull %2) #4
  %3 = call i32 (i8*, ...) bitcast (i32 (...)* @gets to i32 (i8*, ...)*)(i8* nonnull %2) #4
  %4 = load i8, i8* %2, align 16, !tbaa !5
  %5 = icmp eq i8 %4, 0
  br i1 %5, label %8, label %11

6:                                                ; preds = %11
  %7 = icmp ult i32 %13, 2147483647
  br i1 %7, label %8, label %50

8:                                                ; preds = %0, %6
  %9 = phi i32 [ %15, %6 ], [ 1, %0 ]
  %10 = zext i32 %9 to i64
  br label %19

11:                                               ; preds = %0, %11
  %12 = phi i64 [ %14, %11 ], [ 0, %0 ]
  %13 = phi i32 [ %15, %11 ], [ 1, %0 ]
  %14 = add nuw nsw i64 %12, 1
  %15 = add nuw i32 %13, 1
  %16 = getelementptr inbounds [100000 x i8], [100000 x i8]* %1, i64 0, i64 %14
  %17 = load i8, i8* %16, align 1, !tbaa !5
  %18 = icmp eq i8 %17, 0
  br i1 %18, label %6, label %11, !llvm.loop !8

19:                                               ; preds = %47, %8
  %20 = phi i8 [ %4, %8 ], [ %49, %47 ]
  %21 = phi i64 [ 0, %8 ], [ %45, %47 ]
  %22 = phi i32 [ 0, %8 ], [ %44, %47 ]
  %23 = getelementptr inbounds [100000 x i8], [100000 x i8]* %1, i64 0, i64 %21
  switch i8 %20, label %24 [
    i8 32, label %26
    i8 0, label %26
  ]

24:                                               ; preds = %19
  %25 = add nsw i32 %22, 1
  br label %26

26:                                               ; preds = %19, %19, %24
  %27 = phi i32 [ %25, %24 ], [ %22, %19 ], [ %22, %19 ]
  %28 = icmp eq i8 %20, 32
  br i1 %28, label %29, label %37

29:                                               ; preds = %26
  %30 = add nsw i64 %21, -1
  %31 = getelementptr inbounds [100000 x i8], [100000 x i8]* %1, i64 0, i64 %30
  %32 = load i8, i8* %31, align 1, !tbaa !5
  %33 = icmp eq i8 %32, 32
  br i1 %33, label %43, label %34

34:                                               ; preds = %29
  %35 = call i32 (i8*, ...) @printf(i8* nonnull dereferenceable(1) getelementptr inbounds ([4 x i8], [4 x i8]* @.str, i64 0, i64 0), i32 %27)
  %36 = load i8, i8* %23, align 1, !tbaa !5
  br label %37

37:                                               ; preds = %34, %26
  %38 = phi i8 [ %36, %34 ], [ %20, %26 ]
  %39 = phi i32 [ 0, %34 ], [ %27, %26 ]
  %40 = icmp eq i8 %38, 0
  br i1 %40, label %41, label %43

41:                                               ; preds = %37
  %42 = call i32 (i8*, ...) @printf(i8* nonnull dereferenceable(1) getelementptr inbounds ([3 x i8], [3 x i8]* @.str.1, i64 0, i64 0), i32 %39)
  br label %43

43:                                               ; preds = %29, %37, %41
  %44 = phi i32 [ 0, %41 ], [ %39, %37 ], [ %27, %29 ]
  %45 = add nuw nsw i64 %21, 1
  %46 = icmp eq i64 %45, %10
  br i1 %46, label %50, label %47, !llvm.loop !10

47:                                               ; preds = %43
  %48 = getelementptr inbounds [100000 x i8], [100000 x i8]* %1, i64 0, i64 %45
  %49 = load i8, i8* %48, align 1, !tbaa !5
  br label %19

50:                                               ; preds = %43, %6
  call void @llvm.lifetime.end.p0i8(i64 100000, i8* nonnull %2) #4
  ret void
}

; Function Attrs: argmemonly mustprogress nofree nosync nounwind willreturn
declare void @llvm.lifetime.start.p0i8(i64 immarg, i8* nocapture) #1

declare i32 @gets(...) local_unnamed_addr #2

; Function Attrs: nofree nounwind
declare noundef i32 @printf(i8* nocapture noundef readonly, ...) local_unnamed_addr #3

; Function Attrs: argmemonly mustprogress nofree nosync nounwind willreturn
declare void @llvm.lifetime.end.p0i8(i64 immarg, i8* nocapture) #1


!llvm.module.flags = !{!0, !1, !2, !3}
!llvm.ident = !{!4}

!0 = !{i32 1, !"wchar_size", i32 4}
!1 = !{i32 7, !"PIC Level", i32 2}
!2 = !{i32 7, !"PIE Level", i32 2}
!3 = !{i32 7, !"uwtable", i32 1}
!4 = !{!"clang version 13.0.0"}
!5 = !{!6, !6, i64 0}
!6 = !{!"omnipotent char", !7, i64 0}
!7 = !{!"Simple C/C++ TBAA"}
!8 = distinct !{!8, !9}
!9 = !{!"llvm.loop.mustprogress"}
!10 = distinct !{!10, !9}
